; Function Attrs: mustprogress uwtable
define noundef zeroext i1 @_ZNK7rocksdb15ForwardIterator13IsValuePinnedEv(ptr noundef nonnull readonly align 16 captures(none) dereferenceable(2944) %0) unnamed_addr #5 align 2 {
  %2 = getelementptr inbounds nuw i8, ptr %0, i64 640
  %3 = load ptr, ptr %2, align 16, !tbaa !128
  %.not = icmp eq ptr %3, null
  br i1 %.not, label %15, label %4

4:                                                ; preds = %1
  %5 = getelementptr inbounds nuw i8, ptr %3, i64 32
  %6 = load i8, ptr %5, align 8, !tbaa !392, !range !290, !noundef !291
  %7 = trunc nuw i8 %6 to i1
  br i1 %7, label %8, label %15

8:                                                ; preds = %4
  %9 = getelementptr inbounds nuw i8, ptr %0, i64 368
  %10 = load ptr, ptr %9, align 16, !tbaa !375
  %11 = load ptr, ptr %10, align 8, !tbaa !19
  %12 = getelementptr inbounds nuw i8, ptr %11, i64 168
  %13 = load ptr, ptr %12, align 8
  %14 = tail call noundef zeroext i1 %13(ptr noundef nonnull align 8 dereferenceable(40) %10)
  br label %15

15:                                               ; preds = %8, %4, %1
  %16 = phi i1 [ false, %4 ], [ false, %1 ], [ %14, %8 ]
  ret i1 %16
}